(i__main__
LogFile
p0
(dp1
S'_installed_files'
p2
(dp3
S'../../../Analysis/FhtAnalysis/amd64_linux26/libFhtAnalysis.so'
p4
S'../../../InstallArea/amd64_linux26/lib/libFhtAnalysis.so'
p5
sS'../Analysis/FhtAnalysis/python'
p6
(dp7
S'../../../Analysis/FhtAnalysis/python/FhtAnalysis/__init__.py'
p8
S'../../../InstallArea/python/FhtAnalysis/__init__.py'
p9
sssb.